target datalayout = "e-m:e-p270:32:32-p271:32:32-p272:64:64-i64:64-i128:128-f80:128-n8:16:32:64-S128"
target triple = "x86_64-pc-linux-gnu"

%struct.stb_vorbis = type { i32, i32, i32, i32, i32, ptr, i32, ptr, ptr, i32, i32, ptr, ptr, ptr, i32, i8, i32, %struct.ProbedPage, %struct.ProbedPage, %struct.stb_vorbis_alloc, i32, i32, i32, i32, [2 x i32], i32, i32, i32, ptr, i32, [64 x i16], ptr, i32, [64 x i16], ptr, i32, ptr, i32, [64 x %struct.Mode], i32, [16 x ptr], [16 x ptr], [16 x ptr], i32, [16 x ptr], i32, i32, [2 x ptr], [2 x ptr], [2 x ptr], [2 x ptr], [2 x ptr], i32, i32, i32, [255 x i8], i8, i8, i8, i32, i32, i32, i32, i32, i32, i32, i32, i32, i32, i32, [4 x %struct.CRCscan], i32, i32 }
%struct.ProbedPage = type { i32, i32, i32 }
%struct.stb_vorbis_alloc = type { ptr, i32 }
%struct.Mode = type { i8, i8, i16, i16 }
%struct.CRCscan = type { i32, i32, i32, i32, i32 }
%struct.Codebook = type { i32, i32, ptr, float, float, i8, i8, i8, i8, i32, ptr, ptr, [1024 x i16], ptr, ptr, i32 }

; Function Attrs: inlinehint nounwind uwtable
define available_externally void @prep_huffman(ptr noundef %0) #9 {
  %2 = alloca ptr, align 8
  %3 = alloca i32, align 4
  %4 = alloca i32, align 4
  store ptr %0, ptr %2, align 8, !tbaa !3
  %5 = load ptr, ptr %2, align 8, !tbaa !3
  %6 = getelementptr inbounds nuw %struct.stb_vorbis, ptr %5, i32 0, i32 63
  %7 = load i32, ptr %6, align 8, !tbaa !90
  %8 = icmp sle i32 %7, 24
  br i1 %8, label %9, label %58

9:                                                ; preds = %1
  %10 = load ptr, ptr %2, align 8, !tbaa !3
  %11 = getelementptr inbounds nuw %struct.stb_vorbis, ptr %10, i32 0, i32 63
  %12 = load i32, ptr %11, align 8, !tbaa !90
  %13 = icmp eq i32 %12, 0
  br i1 %13, label %14, label %17

14:                                               ; preds = %9
  %15 = load ptr, ptr %2, align 8, !tbaa !3
  %16 = getelementptr inbounds nuw %struct.stb_vorbis, ptr %15, i32 0, i32 62
  store i32 0, ptr %16, align 4, !tbaa !95
  br label %17

17:                                               ; preds = %14, %9
  br label %18

18:                                               ; preds = %52, %17
  call void @llvm.lifetime.start.p0(i64 4, ptr %3) #11
  %19 = load ptr, ptr %2, align 8, !tbaa !3
  %20 = getelementptr inbounds nuw %struct.stb_vorbis, ptr %19, i32 0, i32 60
  %21 = load i32, ptr %20, align 4, !tbaa !89
  %22 = icmp ne i32 %21, 0
  br i1 %22, label %23, label %29

23:                                               ; preds = %18
  %24 = load ptr, ptr %2, align 8, !tbaa !3
  %25 = getelementptr inbounds nuw %struct.stb_vorbis, ptr %24, i32 0, i32 57
  %26 = load i8, ptr %25, align 4, !tbaa !92
  %27 = icmp ne i8 %26, 0
  br i1 %27, label %29, label %28

28:                                               ; preds = %23
  store i32 1, ptr %4, align 4
  br label %49

29:                                               ; preds = %23, %18
  %30 = load ptr, ptr %2, align 8, !tbaa !3
  %31 = call i32 @get8_packet_raw(ptr noundef %30)
  store i32 %31, ptr %3, align 4, !tbaa !8
  %32 = load i32, ptr %3, align 4, !tbaa !8
  %33 = icmp eq i32 %32, -1
  br i1 %33, label %34, label %35

34:                                               ; preds = %29
  store i32 1, ptr %4, align 4
  br label %49

35:                                               ; preds = %29
  %36 = load i32, ptr %3, align 4, !tbaa !8
  %37 = load ptr, ptr %2, align 8, !tbaa !3
  %38 = getelementptr inbounds nuw %struct.stb_vorbis, ptr %37, i32 0, i32 63
  %39 = load i32, ptr %38, align 8, !tbaa !90
  %40 = shl i32 %36, %39
  %41 = load ptr, ptr %2, align 8, !tbaa !3
  %42 = getelementptr inbounds nuw %struct.stb_vorbis, ptr %41, i32 0, i32 62
  %43 = load i32, ptr %42, align 4, !tbaa !95
  %44 = add i32 %43, %40
  store i32 %44, ptr %42, align 4, !tbaa !95
  %45 = load ptr, ptr %2, align 8, !tbaa !3
  %46 = getelementptr inbounds nuw %struct.stb_vorbis, ptr %45, i32 0, i32 63
  %47 = load i32, ptr %46, align 8, !tbaa !90
  %48 = add nsw i32 %47, 8
  store i32 %48, ptr %46, align 8, !tbaa !90
  store i32 0, ptr %4, align 4
  br label %49

49:                                               ; preds = %35, %34, %28
  call void @llvm.lifetime.end.p0(i64 4, ptr %3) #11
  %50 = load i32, ptr %4, align 4
  switch i32 %50, label %59 [
    i32 0, label %51
    i32 1, label %58
  ]

51:                                               ; preds = %49
  br label %52

52:                                               ; preds = %51
  %53 = load ptr, ptr %2, align 8, !tbaa !3
  %54 = getelementptr inbounds nuw %struct.stb_vorbis, ptr %53, i32 0, i32 63
  %55 = load i32, ptr %54, align 8, !tbaa !90
  %56 = icmp sle i32 %55, 24
  br i1 %56, label %18, label %57, !llvm.loop !99

57:                                               ; preds = %52
  br label %58

58:                                               ; preds = %49, %57, %1
  ret void

59:                                               ; preds = %49
  unreachable
}

; Function Attrs: nounwind uwtable
define i32 @error(ptr noundef %0, i32 noundef %1) #0 {
  %3 = alloca ptr, align 8
  %4 = alloca i32, align 4
  store ptr %0, ptr %3, align 8, !tbaa !3
  store i32 %1, ptr %4, align 4, !tbaa !8
  %5 = load i32, ptr %4, align 4, !tbaa !8
  %6 = load ptr, ptr %3, align 8, !tbaa !3
  %7 = getelementptr inbounds nuw %struct.stb_vorbis, ptr %6, i32 0, i32 23
  store i32 %5, ptr %7, align 4, !tbaa !10
  %8 = load ptr, ptr %3, align 8, !tbaa !3
  %9 = getelementptr inbounds nuw %struct.stb_vorbis, ptr %8, i32 0, i32 22
  %10 = load i32, ptr %9, align 8, !tbaa !17
  %11 = icmp ne i32 %10, 0
  br i1 %11, label %19, label %12

12:                                               ; preds = %2
  %13 = load i32, ptr %4, align 4, !tbaa !8
  %14 = icmp ne i32 %13, 1
  br i1 %14, label %15, label %19

15:                                               ; preds = %12
  %16 = load i32, ptr %4, align 4, !tbaa !8
  %17 = load ptr, ptr %3, align 8, !tbaa !3
  %18 = getelementptr inbounds nuw %struct.stb_vorbis, ptr %17, i32 0, i32 23
  store i32 %16, ptr %18, align 4, !tbaa !10
  br label %19

19:                                               ; preds = %15, %12, %2
  ret i32 0
}

; Function Attrs: nounwind uwtable
define i32 @codebook_decode_start(ptr noundef %0, ptr noundef %1) #0 {
  %3 = alloca i32, align 4
  %4 = alloca ptr, align 8
  %5 = alloca ptr, align 8
  %6 = alloca i32, align 4
  %7 = alloca i32, align 4
  %8 = alloca i32, align 4
  store ptr %0, ptr %4, align 8, !tbaa !3
  store ptr %1, ptr %5, align 8, !tbaa !18
  call void @llvm.lifetime.start.p0(i64 4, ptr %6) #11
  store i32 -1, ptr %6, align 4, !tbaa !8
  %9 = load ptr, ptr %5, align 8, !tbaa !18
  %10 = getelementptr inbounds nuw %struct.Codebook, ptr %9, i32 0, i32 6
  %11 = load i8, ptr %10, align 1, !tbaa !100
  %12 = zext i8 %11 to i32
  %13 = icmp eq i32 %12, 0
  br i1 %13, label %14, label %17

14:                                               ; preds = %2
  %15 = load ptr, ptr %4, align 8, !tbaa !3
  %16 = call i32 @error(ptr noundef %15, i32 noundef 21)
  br label %95

17:                                               ; preds = %2
  %18 = load ptr, ptr %4, align 8, !tbaa !3
  %19 = getelementptr inbounds nuw %struct.stb_vorbis, ptr %18, i32 0, i32 63
  %20 = load i32, ptr %19, align 8, !tbaa !90
  %21 = icmp slt i32 %20, 10
  br i1 %21, label %22, label %24

22:                                               ; preds = %17
  %23 = load ptr, ptr %4, align 8, !tbaa !3
  call void @prep_huffman(ptr noundef %23)
  br label %24

24:                                               ; preds = %22, %17
  %25 = load ptr, ptr %4, align 8, !tbaa !3
  %26 = getelementptr inbounds nuw %struct.stb_vorbis, ptr %25, i32 0, i32 62
  %27 = load i32, ptr %26, align 4, !tbaa !95
  %28 = and i32 %27, 1023
  store i32 %28, ptr %6, align 4, !tbaa !8
  %29 = load ptr, ptr %5, align 8, !tbaa !18
  %30 = getelementptr inbounds nuw %struct.Codebook, ptr %29, i32 0, i32 12
  %31 = load i32, ptr %6, align 4, !tbaa !8
  %32 = sext i32 %31 to i64
  %33 = getelementptr inbounds [1024 x i16], ptr %30, i64 0, i64 %32
  %34 = load i16, ptr %33, align 2, !tbaa !45
  %35 = sext i16 %34 to i32
  store i32 %35, ptr %6, align 4, !tbaa !8
  %36 = load i32, ptr %6, align 4, !tbaa !8
  %37 = icmp sge i32 %36, 0
  br i1 %37, label %38, label %65

38:                                               ; preds = %24
  call void @llvm.lifetime.start.p0(i64 4, ptr %7) #11
  %39 = load ptr, ptr %5, align 8, !tbaa !18
  %40 = getelementptr inbounds nuw %struct.Codebook, ptr %39, i32 0, i32 2
  %41 = load ptr, ptr %40, align 8, !tbaa !39
  %42 = load i32, ptr %6, align 4, !tbaa !8
  %43 = sext i32 %42 to i64
  %44 = getelementptr inbounds i8, ptr %41, i64 %43
  %45 = load i8, ptr %44, align 1, !tbaa !30
  %46 = zext i8 %45 to i32
  store i32 %46, ptr %7, align 4, !tbaa !8
  %47 = load i32, ptr %7, align 4, !tbaa !8
  %48 = load ptr, ptr %4, align 8, !tbaa !3
  %49 = getelementptr inbounds nuw %struct.stb_vorbis, ptr %48, i32 0, i32 62
  %50 = load i32, ptr %49, align 4, !tbaa !95
  %51 = lshr i32 %50, %47
  store i32 %51, ptr %49, align 4, !tbaa !95
  %52 = load i32, ptr %7, align 4, !tbaa !8
  %53 = load ptr, ptr %4, align 8, !tbaa !3
  %54 = getelementptr inbounds nuw %struct.stb_vorbis, ptr %53, i32 0, i32 63
  %55 = load i32, ptr %54, align 8, !tbaa !90
  %56 = sub nsw i32 %55, %52
  store i32 %56, ptr %54, align 8, !tbaa !90
  %57 = load ptr, ptr %4, align 8, !tbaa !3
  %58 = getelementptr inbounds nuw %struct.stb_vorbis, ptr %57, i32 0, i32 63
  %59 = load i32, ptr %58, align 8, !tbaa !90
  %60 = icmp slt i32 %59, 0
  br i1 %60, label %61, label %64

61:                                               ; preds = %38
  %62 = load ptr, ptr %4, align 8, !tbaa !3
  %63 = getelementptr inbounds nuw %struct.stb_vorbis, ptr %62, i32 0, i32 63
  store i32 0, ptr %63, align 8, !tbaa !90
  store i32 -1, ptr %6, align 4, !tbaa !8
  br label %64

64:                                               ; preds = %61, %38
  call void @llvm.lifetime.end.p0(i64 4, ptr %7) #11
  br label %69

65:                                               ; preds = %24
  %66 = load ptr, ptr %4, align 8, !tbaa !3
  %67 = load ptr, ptr %5, align 8, !tbaa !18
  %68 = call i32 @codebook_decode_scalar_raw(ptr noundef %66, ptr noundef %67)
  store i32 %68, ptr %6, align 4, !tbaa !8
  br label %69

69:                                               ; preds = %65, %64
  %70 = load ptr, ptr %5, align 8, !tbaa !18
  %71 = getelementptr inbounds nuw %struct.Codebook, ptr %70, i32 0, i32 8
  %72 = load i8, ptr %71, align 1, !tbaa !35
  %73 = icmp ne i8 %72, 0
  br i1 %73, label %74, label %75

74:                                               ; preds = %69
  br label %75

75:                                               ; preds = %74, %69
  %76 = load i32, ptr %6, align 4, !tbaa !8
  %77 = icmp slt i32 %76, 0
  br i1 %77, label %78, label %94

78:                                               ; preds = %75
  %79 = load ptr, ptr %4, align 8, !tbaa !3
  %80 = getelementptr inbounds nuw %struct.stb_vorbis, ptr %79, i32 0, i32 57
  %81 = load i8, ptr %80, align 4, !tbaa !92
  %82 = icmp ne i8 %81, 0
  br i1 %82, label %91, label %83

83:                                               ; preds = %78
  %84 = load ptr, ptr %4, align 8, !tbaa !3
  %85 = getelementptr inbounds nuw %struct.stb_vorbis, ptr %84, i32 0, i32 60
  %86 = load i32, ptr %85, align 4, !tbaa !89
  %87 = icmp ne i32 %86, 0
  br i1 %87, label %88, label %90

88:                                               ; preds = %83
  %89 = load i32, ptr %6, align 4, !tbaa !8
  store i32 %89, ptr %3, align 4
  store i32 1, ptr %8, align 4
  br label %97

90:                                               ; preds = %83
  br label %91

91:                                               ; preds = %90, %78
  %92 = load ptr, ptr %4, align 8, !tbaa !3
  %93 = call i32 @error(ptr noundef %92, i32 noundef 21)
  br label %94

94:                                               ; preds = %91, %75
  br label %95

95:                                               ; preds = %94, %14
  %96 = load i32, ptr %6, align 4, !tbaa !8
  store i32 %96, ptr %3, align 4
  store i32 1, ptr %8, align 4
  br label %97

97:                                               ; preds = %95, %88
  call void @llvm.lifetime.end.p0(i64 4, ptr %6) #11
  %98 = load i32, ptr %3, align 4
  ret i32 %98
}