; Function Attrs: nofree nounwind uwtable
define i32 @codebook_decode_start(ptr noundef captures(none) %0, ptr noundef readonly captures(none) %1) local_unnamed_addr #17 {
  %3 = getelementptr inbounds nuw i8, ptr %1, i64 25
  %4 = load i8, ptr %3, align 1, !tbaa !90
  %5 = icmp eq i8 %4, 0
  br i1 %5, label %.thread31.sink.split, label %6

6:                                                ; preds = %2
  %7 = getelementptr inbounds nuw i8, ptr %0, i64 1784
  %8 = load i32, ptr %7, align 8, !tbaa !80
  %9 = icmp slt i32 %8, 10
  br i1 %9, label %10, label %prep_huffman.exit

10:                                               ; preds = %6
  %11 = icmp eq i32 %8, 0
  br i1 %11, label %12, label %14

12:                                               ; preds = %10
  %13 = getelementptr inbounds nuw i8, ptr %0, i64 1780
  store i32 0, ptr %13, align 4, !tbaa !85
  br label %14

14:                                               ; preds = %12, %10
  %15 = getelementptr inbounds nuw i8, ptr %0, i64 1764
  %16 = getelementptr inbounds nuw i8, ptr %0, i64 1772
  %17 = getelementptr inbounds nuw i8, ptr %0, i64 1780
  br label %18

18:                                               ; preds = %25, %14
  %19 = load i32, ptr %16, align 4, !tbaa !79
  %.not.i = icmp eq i32 %19, 0
  br i1 %.not.i, label %22, label %20

20:                                               ; preds = %18
  %21 = load i8, ptr %15, align 4, !tbaa !82
  %.not14.i = icmp eq i8 %21, 0
  br i1 %.not14.i, label %prep_huffman.exit, label %22

22:                                               ; preds = %20, %18
  %23 = tail call i32 @get8_packet_raw(ptr noundef nonnull %0)
  %24 = icmp eq i32 %23, -1
  br i1 %24, label %prep_huffman.exit, label %25

25:                                               ; preds = %22
  %26 = load i32, ptr %7, align 8, !tbaa !80
  %27 = shl i32 %23, %26
  %28 = load i32, ptr %17, align 4, !tbaa !85
  %29 = add i32 %28, %27
  store i32 %29, ptr %17, align 4, !tbaa !85
  %30 = add nsw i32 %26, 8
  store i32 %30, ptr %7, align 8, !tbaa !80
  %31 = icmp slt i32 %26, 17
  br i1 %31, label %18, label %prep_huffman.exit, !llvm.loop !87

prep_huffman.exit:                                ; preds = %25, %22, %20, %6
  %32 = getelementptr inbounds nuw i8, ptr %0, i64 1780
  %33 = load i32, ptr %32, align 4, !tbaa !85
  %34 = and i32 %33, 1023
  %35 = getelementptr inbounds nuw i8, ptr %1, i64 48
  %36 = zext nneg i32 %34 to i64
  %37 = getelementptr inbounds nuw [1024 x i16], ptr %35, i64 0, i64 %36
  %38 = load i16, ptr %37, align 2, !tbaa !36
  %39 = icmp sgt i16 %38, -1
  br i1 %39, label %40, label %52

40:                                               ; preds = %prep_huffman.exit
  %41 = zext nneg i16 %38 to i32
  %42 = getelementptr inbounds nuw i8, ptr %1, i64 8
  %43 = load ptr, ptr %42, align 8, !tbaa !30
  %44 = zext nneg i16 %38 to i64
  %45 = getelementptr inbounds nuw i8, ptr %43, i64 %44
  %46 = load i8, ptr %45, align 1, !tbaa !23
  %47 = zext i8 %46 to i32
  %48 = lshr i32 %33, %47
  store i32 %48, ptr %32, align 4, !tbaa !85
  %49 = load i32, ptr %7, align 8, !tbaa !80
  %50 = sub nsw i32 %49, %47
  %51 = icmp slt i32 %50, 0
  %spec.select = tail call i32 @llvm.smax.i32(i32 %50, i32 0)
  store i32 %spec.select, ptr %7, align 8, !tbaa !80
  br i1 %51, label %.thread, label %.thread31

52:                                               ; preds = %prep_huffman.exit
  %53 = tail call i32 @codebook_decode_scalar_raw(ptr noundef nonnull %0, ptr noundef nonnull %1)
  %54 = icmp slt i32 %53, 0
  br i1 %54, label %.thread, label %.thread31

.thread:                                          ; preds = %40, %52
  %.230 = phi i32 [ %53, %52 ], [ -1, %40 ]
  %55 = getelementptr inbounds nuw i8, ptr %0, i64 1764
  %56 = load i8, ptr %55, align 4, !tbaa !82
  %.not = icmp eq i8 %56, 0
  br i1 %.not, label %57, label %.thread31.sink.split

57:                                               ; preds = %.thread
  %58 = getelementptr inbounds nuw i8, ptr %0, i64 1772
  %59 = load i32, ptr %58, align 4, !tbaa !79
  %.not27 = icmp eq i32 %59, 0
  br i1 %.not27, label %.thread31.sink.split, label %.thread31

.thread31.sink.split:                             ; preds = %.thread, %57, %2
  %.0.ph = phi i32 [ -1, %2 ], [ %.230, %57 ], [ %.230, %.thread ]
  %60 = getelementptr inbounds nuw i8, ptr %0, i64 156
  store i32 21, ptr %60, align 4
  br label %.thread31

.thread31:                                        ; preds = %.thread31.sink.split, %40, %52, %57
  %.0 = phi i32 [ %.230, %57 ], [ %53, %52 ], [ %41, %40 ], [ %.0.ph, %.thread31.sink.split ]
  ret i32 %.0
}